target datalayout = "e-m:e-p270:32:32-p271:32:32-p272:64:64-i64:64-i128:128-f80:128-n8:16:32:64-S128"
target triple = "x86_64-pc-linux-gnu"

%struct.buf_t = type { i32, ptr, i32, i32, i8, i8 }
%struct.config_file_t = type { i8, i8, ptr, ptr, i32, ptr }
%struct.config_response_msg_t = type { ptr, ptr }

@.str.2 = private unnamed_addr constant [15 x i8] c"fetch_config.c\00", align 1
@__func__._load_conf2list = private unnamed_addr constant [16 x i8] c"_load_conf2list\00", align 1
@.str.49 = private unnamed_addr constant [22 x i8] c"%s: config file %s %s\00", align 1
@.str.50 = private unnamed_addr constant [7 x i8] c"exists\00", align 1
@.str.51 = private unnamed_addr constant [15 x i8] c"does not exist\00", align 1

; Function Attrs: nounwind uwtable
define internal void @_load_conf2list(ptr noundef %0, ptr noundef %1, i1 noundef zeroext %2) #0 {
  %4 = alloca ptr, align 8
  %5 = alloca ptr, align 8
  %6 = alloca i8, align 1
  %7 = alloca ptr, align 8
  %8 = alloca ptr, align 8
  %9 = alloca ptr, align 8
  %10 = alloca i8, align 1
  store ptr %0, ptr %4, align 8
  store ptr %1, ptr %5, align 8
  %11 = zext i1 %2 to i8
  store i8 %11, ptr %6, align 1
  call void @llvm.lifetime.start.p0(i64 8, ptr %7) #9
  store ptr null, ptr %7, align 8
  call void @llvm.lifetime.start.p0(i64 8, ptr %8) #9
  call void @llvm.lifetime.start.p0(i64 8, ptr %9) #9
  %12 = load ptr, ptr %5, align 8
  %13 = call ptr @get_extra_conf_path(ptr noundef %12)
  store ptr %13, ptr %9, align 8
  call void @llvm.lifetime.start.p0(i64 1, ptr %10) #9
  store i8 1, ptr %10, align 1
  %14 = load ptr, ptr %9, align 8
  %15 = call ptr @create_mmap_buf(ptr noundef %14)
  store ptr %15, ptr %8, align 8
  call void @slurm_xfree(ptr noundef %9)
  %16 = load ptr, ptr %8, align 8
  %17 = icmp ne ptr %16, null
  br i1 %17, label %23, label %18

18:                                               ; preds = %3
  %19 = call ptr @__errno_location() #12
  %20 = load i32, ptr %19, align 4
  %21 = icmp ne i32 %20, 22
  br i1 %21, label %22, label %23

22:                                               ; preds = %18
  store i8 0, ptr %10, align 1
  br label %23

23:                                               ; preds = %22, %18, %3
  %24 = call ptr @slurm_xcalloc(i64 noundef 1, i64 noundef 40, i1 noundef zeroext true, i1 noundef zeroext false, ptr noundef @.str.2, i32 noundef 507, ptr noundef @__func__._load_conf2list)
  store ptr %24, ptr %7, align 8
  %25 = load i8, ptr %10, align 1, !range !13, !noundef !14
  %26 = trunc i8 %25 to i1
  %27 = load ptr, ptr %7, align 8
  %28 = getelementptr inbounds nuw %struct.config_file_t, ptr %27, i32 0, i32 0
  %29 = zext i1 %26 to i8
  store i8 %29, ptr %28, align 8
  %30 = load i8, ptr %6, align 1, !range !13, !noundef !14
  %31 = trunc i8 %30 to i1
  %32 = load ptr, ptr %7, align 8
  %33 = getelementptr inbounds nuw %struct.config_file_t, ptr %32, i32 0, i32 1
  %34 = zext i1 %31 to i8
  store i8 %34, ptr %33, align 1
  %35 = load ptr, ptr %8, align 8
  %36 = icmp ne ptr %35, null
  br i1 %36, label %37, label %48

37:                                               ; preds = %23
  %38 = load ptr, ptr %8, align 8
  %39 = getelementptr inbounds nuw %struct.buf_t, ptr %38, i32 0, i32 1
  %40 = load ptr, ptr %39, align 8
  %41 = load ptr, ptr %8, align 8
  %42 = getelementptr inbounds nuw %struct.buf_t, ptr %41, i32 0, i32 2
  %43 = load i32, ptr %42, align 8
  %44 = zext i32 %43 to i64
  %45 = call ptr @xstrndup(ptr noundef %40, i64 noundef %44)
  %46 = load ptr, ptr %7, align 8
  %47 = getelementptr inbounds nuw %struct.config_file_t, ptr %46, i32 0, i32 3
  store ptr %45, ptr %47, align 8
  br label %48

48:                                               ; preds = %37, %23
  %49 = load ptr, ptr %5, align 8
  %50 = call ptr @xstrdup(ptr noundef %49)
  %51 = load ptr, ptr %7, align 8
  %52 = getelementptr inbounds nuw %struct.config_file_t, ptr %51, i32 0, i32 2
  store ptr %50, ptr %52, align 8
  %53 = load ptr, ptr %4, align 8
  %54 = getelementptr inbounds nuw %struct.config_response_msg_t, ptr %53, i32 0, i32 0
  %55 = load ptr, ptr %54, align 8
  %56 = load ptr, ptr %7, align 8
  call void @list_append(ptr noundef %55, ptr noundef %56)
  br label %57

57:                                               ; preds = %48
  br label %58

58:                                               ; preds = %57
  %59 = call i32 @get_log_level()
  %60 = icmp sge i32 %59, 7
  br i1 %60, label %61, label %66

61:                                               ; preds = %58
  %62 = load ptr, ptr %5, align 8
  %63 = load i8, ptr %10, align 1, !range !13, !noundef !14
  %64 = trunc i8 %63 to i1
  %65 = select i1 %64, ptr @.str.50, ptr @.str.51
  call void (i32, ptr, ...) @log_var(i32 noundef 7, ptr noundef @.str.49, ptr noundef @__func__._load_conf2list, ptr noundef %62, ptr noundef %65)
  br label %66

66:                                               ; preds = %61, %58
  br label %67

67:                                               ; preds = %66
  br label %68

68:                                               ; preds = %67
  br label %69

69:                                               ; preds = %68
  br label %70

70:                                               ; preds = %69
  br label %71

71:                                               ; preds = %70
  %72 = load ptr, ptr %8, align 8
  %73 = icmp ne ptr %72, null
  br i1 %73, label %74, label %76

74:                                               ; preds = %71
  %75 = load ptr, ptr %8, align 8
  call void @free_buf(ptr noundef %75)
  br label %76

76:                                               ; preds = %74, %71
  store ptr null, ptr %8, align 8
  br label %77

77:                                               ; preds = %76
  br label %78

78:                                               ; preds = %77
  call void @llvm.lifetime.end.p0(i64 1, ptr %10) #9
  call void @llvm.lifetime.end.p0(i64 8, ptr %9) #9
  call void @llvm.lifetime.end.p0(i64 8, ptr %8) #9
  call void @llvm.lifetime.end.p0(i64 8, ptr %7) #9
  ret void
}