; Function Attrs: nounwind uwtable
define internal fastcc void @_load_conf2list(ptr noundef readonly captures(none) %0, ptr noundef %1, i1 noundef zeroext %2) unnamed_addr #0 {
  %4 = alloca ptr, align 8
  %5 = zext i1 %2 to i8
  call void @llvm.lifetime.start.p0(i64 8, ptr nonnull %4) #12
  %6 = tail call ptr @get_extra_conf_path(ptr noundef %1) #12
  store ptr %6, ptr %4, align 8
  %7 = tail call ptr @create_mmap_buf(ptr noundef %6) #12
  call void @slurm_xfree(ptr noundef nonnull %4) #12
  %.not = icmp eq ptr %7, null
  br i1 %.not, label %8, label %11

8:                                                ; preds = %3
  %9 = tail call ptr @__errno_location() #14
  %10 = load i32, ptr %9, align 4
  %.not18 = icmp eq i32 %10, 22
  br label %11

11:                                               ; preds = %8, %3
  %.0 = phi i1 [ true, %3 ], [ %.not18, %8 ]
  %12 = call ptr @slurm_xcalloc(i64 noundef 1, i64 noundef 40, i1 noundef zeroext true, i1 noundef zeroext false, ptr noundef nonnull @.str.2, i32 noundef 507, ptr noundef nonnull @__func__._load_conf2list) #12
  %13 = zext i1 %.0 to i8
  store i8 %13, ptr %12, align 8
  %14 = getelementptr inbounds nuw i8, ptr %12, i64 1
  store i8 %5, ptr %14, align 1
  br i1 %.not, label %23, label %15

15:                                               ; preds = %11
  %16 = getelementptr inbounds nuw i8, ptr %7, i64 8
  %17 = load ptr, ptr %16, align 8
  %18 = getelementptr inbounds nuw i8, ptr %7, i64 16
  %19 = load i32, ptr %18, align 8
  %20 = zext i32 %19 to i64
  %21 = call ptr @xstrndup(ptr noundef %17, i64 noundef %20) #12
  %22 = getelementptr inbounds nuw i8, ptr %12, i64 16
  store ptr %21, ptr %22, align 8
  br label %23

23:                                               ; preds = %15, %11
  %24 = call ptr @xstrdup(ptr noundef %1) #12
  %25 = getelementptr inbounds nuw i8, ptr %12, i64 8
  store ptr %24, ptr %25, align 8
  %26 = load ptr, ptr %0, align 8
  call void @list_append(ptr noundef %26, ptr noundef nonnull %12) #12
  %27 = call i32 @get_log_level() #12
  %28 = icmp sgt i32 %27, 6
  br i1 %28, label %29, label %31

29:                                               ; preds = %23
  %30 = select i1 %.0, ptr @.str.50, ptr @.str.51
  call void (i32, ptr, ...) @log_var(i32 noundef 7, ptr noundef nonnull @.str.49, ptr noundef nonnull @__func__._load_conf2list, ptr noundef %1, ptr noundef nonnull %30) #12
  br label %31

31:                                               ; preds = %23, %29
  br i1 %.not, label %33, label %32

32:                                               ; preds = %31
  call void @free_buf(ptr noundef nonnull %7) #12
  br label %33

33:                                               ; preds = %32, %31
  call void @llvm.lifetime.end.p0(i64 8, ptr nonnull %4) #12
  ret void
}